; Function Attrs: mustprogress nofree nounwind willreturn memory(read, inaccessiblemem: none) uwtable
define noundef zeroext i1 @_ZNK10open_spiel5oware10OwareBoardeqERKS1_(ptr nocapture noundef nonnull readonly align 8 dereferenceable(56) %0, ptr nocapture noundef nonnull readonly align 8 dereferenceable(56) %1) local_unnamed_addr #5 align 2 {
  %3 = load i32, ptr %0, align 8
  %4 = load i32, ptr %1, align 8
  %5 = icmp eq i32 %3, %4
  br i1 %5, label %6, label %_ZSteqIiSaIiEEbRKSt6vectorIT_T0_ES6_.exit7

6:                                                ; preds = %2
  %7 = getelementptr inbounds nuw i8, ptr %0, i64 8
  %8 = getelementptr inbounds nuw i8, ptr %1, i64 8
  %9 = getelementptr inbounds i8, ptr %0, i64 16
  %10 = load ptr, ptr %9, align 8
  %11 = load ptr, ptr %7, align 8
  %12 = ptrtoint ptr %10 to i64
  %13 = ptrtoint ptr %11 to i64
  %14 = sub i64 %12, %13
  %15 = getelementptr inbounds i8, ptr %1, i64 16
  %16 = load ptr, ptr %15, align 8
  %17 = load ptr, ptr %8, align 8
  %18 = ptrtoint ptr %16 to i64
  %19 = ptrtoint ptr %17 to i64
  %20 = sub i64 %18, %19
  %21 = icmp eq i64 %14, %20
  br i1 %21, label %22, label %_ZSteqIiSaIiEEbRKSt6vectorIT_T0_ES6_.exit7

22:                                               ; preds = %6
  %.not.i.i.i.i.i = icmp eq ptr %10, %11
  br i1 %.not.i.i.i.i.i, label %_ZSteqIiSaIiEEbRKSt6vectorIT_T0_ES6_.exit.thread, label %_ZSteqIiSaIiEEbRKSt6vectorIT_T0_ES6_.exit

_ZSteqIiSaIiEEbRKSt6vectorIT_T0_ES6_.exit:        ; preds = %22
  %bcmp.i.i.i.i.i = tail call i32 @bcmp(ptr %11, ptr %17, i64 %14)
  %.not7.i.i.i.i.i = icmp eq i32 %bcmp.i.i.i.i.i, 0
  br i1 %.not7.i.i.i.i.i, label %_ZSteqIiSaIiEEbRKSt6vectorIT_T0_ES6_.exit.thread, label %_ZSteqIiSaIiEEbRKSt6vectorIT_T0_ES6_.exit7

_ZSteqIiSaIiEEbRKSt6vectorIT_T0_ES6_.exit.thread: ; preds = %22, %_ZSteqIiSaIiEEbRKSt6vectorIT_T0_ES6_.exit
  %23 = getelementptr inbounds nuw i8, ptr %0, i64 32
  %24 = getelementptr inbounds nuw i8, ptr %1, i64 32
  %25 = getelementptr inbounds i8, ptr %0, i64 40
  %26 = load ptr, ptr %25, align 8
  %27 = load ptr, ptr %23, align 8
  %28 = ptrtoint ptr %26 to i64
  %29 = ptrtoint ptr %27 to i64
  %30 = sub i64 %28, %29
  %31 = getelementptr inbounds i8, ptr %1, i64 40
  %32 = load ptr, ptr %31, align 8
  %33 = load ptr, ptr %24, align 8
  %34 = ptrtoint ptr %32 to i64
  %35 = ptrtoint ptr %33 to i64
  %36 = sub i64 %34, %35
  %37 = icmp eq i64 %30, %36
  br i1 %37, label %38, label %_ZSteqIiSaIiEEbRKSt6vectorIT_T0_ES6_.exit7

38:                                               ; preds = %_ZSteqIiSaIiEEbRKSt6vectorIT_T0_ES6_.exit.thread
  %.not.i.i.i.i.i4 = icmp eq ptr %26, %27
  br i1 %.not.i.i.i.i.i4, label %_ZSteqIiSaIiEEbRKSt6vectorIT_T0_ES6_.exit7, label %39

39:                                               ; preds = %38
  %bcmp.i.i.i.i.i5 = tail call i32 @bcmp(ptr %27, ptr %33, i64 %30)
  %.not7.i.i.i.i.i6 = icmp eq i32 %bcmp.i.i.i.i.i5, 0
  br label %_ZSteqIiSaIiEEbRKSt6vectorIT_T0_ES6_.exit7

_ZSteqIiSaIiEEbRKSt6vectorIT_T0_ES6_.exit7:       ; preds = %6, %39, %38, %_ZSteqIiSaIiEEbRKSt6vectorIT_T0_ES6_.exit.thread, %_ZSteqIiSaIiEEbRKSt6vectorIT_T0_ES6_.exit, %2
  %40 = phi i1 [ false, %_ZSteqIiSaIiEEbRKSt6vectorIT_T0_ES6_.exit ], [ false, %2 ], [ false, %_ZSteqIiSaIiEEbRKSt6vectorIT_T0_ES6_.exit.thread ], [ %.not7.i.i.i.i.i6, %39 ], [ true, %38 ], [ false, %6 ]
  ret i1 %40
}